; Function Attrs: nounwind uwtable
define range(i32 -1, 1) i32 @redisvAppendCommand(ptr noundef captures(none) %0, ptr noundef %1, ptr noundef %2) local_unnamed_addr #0 {
  %4 = alloca ptr, align 8
  call void @llvm.lifetime.start.p0(i64 8, ptr nonnull %4) #13
  %5 = call i32 @redisvFormatCommand(ptr noundef nonnull %4, ptr noundef %1, ptr noundef %2)
  switch i32 %5, label %14 [
    i32 -1, label %6
    i32 -2, label %10
  ]

6:                                                ; preds = %3
  %7 = getelementptr inbounds nuw i8, ptr %0, i64 8
  store i32 5, ptr %7, align 8, !tbaa !32
  %8 = getelementptr inbounds nuw i8, ptr %0, i64 12
  call void @llvm.memcpy.p0.p0.i64(ptr noundef nonnull align 4 dereferenceable(13) %8, ptr noundef nonnull align 1 dereferenceable(13) @.str.7, i64 13, i1 false)
  %9 = getelementptr inbounds nuw i8, ptr %0, i64 25
  store i8 0, ptr %9, align 1, !tbaa !22
  br label %30

10:                                               ; preds = %3
  %11 = getelementptr inbounds nuw i8, ptr %0, i64 8
  store i32 2, ptr %11, align 8, !tbaa !32
  %12 = getelementptr inbounds nuw i8, ptr %0, i64 12
  call void @llvm.memcpy.p0.p0.i64(ptr noundef nonnull align 4 dereferenceable(21) %12, ptr noundef nonnull align 1 dereferenceable(21) @.str.9, i64 21, i1 false)
  %13 = getelementptr inbounds nuw i8, ptr %0, i64 33
  store i8 0, ptr %13, align 1, !tbaa !22
  br label %30

14:                                               ; preds = %3
  %15 = load ptr, ptr %4, align 8, !tbaa !24
  %16 = sext i32 %5 to i64
  %17 = getelementptr inbounds nuw i8, ptr %0, i64 152
  %18 = load ptr, ptr %17, align 8, !tbaa !43
  %19 = call ptr @hi_sdscatlen(ptr noundef %18, ptr noundef %15, i64 noundef %16) #13
  %20 = icmp eq ptr %19, null
  br i1 %20, label %21, label %27

21:                                               ; preds = %14
  %22 = getelementptr inbounds nuw i8, ptr %0, i64 8
  store i32 5, ptr %22, align 8, !tbaa !32
  %23 = getelementptr inbounds nuw i8, ptr %0, i64 12
  call void @llvm.memcpy.p0.p0.i64(ptr noundef nonnull align 4 dereferenceable(13) %23, ptr noundef nonnull align 1 dereferenceable(13) @.str.7, i64 13, i1 false)
  %24 = getelementptr inbounds nuw i8, ptr %0, i64 25
  store i8 0, ptr %24, align 1, !tbaa !22
  %25 = load ptr, ptr %4, align 8, !tbaa !24
  %26 = load ptr, ptr getelementptr inbounds nuw (i8, ptr @hiredisAllocFns, i64 32), align 8, !tbaa !20
  call void %26(ptr noundef %25) #13
  br label %30

27:                                               ; preds = %14
  store ptr %19, ptr %17, align 8, !tbaa !43
  %28 = load ptr, ptr %4, align 8, !tbaa !24
  %29 = load ptr, ptr getelementptr inbounds nuw (i8, ptr @hiredisAllocFns, i64 32), align 8, !tbaa !20
  call void %29(ptr noundef %28) #13
  br label %30

30:                                               ; preds = %27, %21, %10, %6
  %.0 = phi i32 [ -1, %6 ], [ -1, %10 ], [ -1, %21 ], [ 0, %27 ]
  call void @llvm.lifetime.end.p0(i64 8, ptr nonnull %4) #13
  ret i32 %.0
}